(lp0
(lp1
(lp2
I0
aI1
aa(lp3
I1
aI2
aa(lp4
I2
aI3
aa(lp5
I3
aI4
aa(lp6
I4
aI7
aa(lp7
I5
aI5
aa(lp8
I6
aI9
aa(lp9
I7
aI10
aa(lp10
I8
aI7
aa(lp11
I9
aI11
aa(lp12
I10
aI13
aa(lp13
I11
aI14
aa(lp14
I12
aI15
aa(lp15
I13
aI16
aa(lp16
I14
aI16
aaa(lp17
(lp18
I0
aI4
aa(lp19
I1
aI0
aa(lp20
I2
aI1
aa(lp21
I3
aI2
aa(lp22
I4
aI3
aa(lp23
I5
aI5
aa(lp24
I6
aI6
aa(lp25
I7
aI6
aa(lp26
I8
aI7
aa(lp27
I9
aI9
aa(lp28
I10
aI8
aa(lp29
I11
aI10
aa(lp30
I12
aI11
aa(lp31
I13
aI12
aa(lp32
I14
aI13
aa(lp33
I15
aI14
aa(lp34
I16
aI15
aaa(lp35
(lp36
I0
aI0
aa(lp37
I1
aI2
aa(lp38
I2
aI3
aa(lp39
I3
aI4
aa(lp40
I4
aI3
aa(lp41
I5
aI3
aa(lp42
I6
aI5
aa(lp43
I7
aI6
aa(lp44
I8
aI8
aa(lp45
I9
aI7
aa(lp46
I10
aI9
aa(lp47
I11
aI10
aa(lp48
I12
aI11
aa(lp49
I13
aI12
aa(lp50
I14
aI13
aa(lp51
I15
aI13
aa(lp52
I16
aI13
aaa(lp53
(lp54
I0
aI14
aa(lp55
I1
aI0
aa(lp56
I2
aI1
aa(lp57
I3
aI2
aa(lp58
I4
aI3
aa(lp59
I5
aI5
aa(lp60
I6
aI7
aa(lp61
I7
aI8
aa(lp62
I8
aI6
aa(lp63
I9
aI9
aa(lp64
I10
aI10
aa(lp65
I11
aI11
aa(lp66
I12
aI11
aa(lp67
I13
aI12
aaa(lp68
(lp69
I0
aI1
aa(lp70
I1
aI1
aa(lp71
I2
aI2
aa(lp72
I3
aI3
aa(lp73
I4
aI2
aa(lp74
I5
aI5
aa(lp75
I6
aI2
aa(lp76
I7
aI5
aa(lp77
I8
aI6
aa(lp78
I9
aI7
aa(lp79
I10
aI7
aa(lp80
I11
aI8
aa(lp81
I12
aI9
aa(lp82
I13
aI10
aa(lp83
I14
aI0
aaa(lp84
(lp85
I0
aI0
aa(lp86
I1
aI0
aa(lp87
I2
aI2
aa(lp88
I3
aI3
aa(lp89
I4
aI4
aa(lp90
I5
aI4
aa(lp91
I6
aI6
aa(lp92
I7
aI8
aa(lp93
I8
aI9
aa(lp94
I9
aI11
aa(lp95
I10
aI11
aa(lp96
I11
aI12
aaa(lp97
(lp98
I0
aI2
aa(lp99
I1
aI3
aa(lp100
I2
aI4
aa(lp101
I3
aI5
aa(lp102
I4
aI6
aa(lp103
I5
aI7
aa(lp104
I6
aI8
aa(lp105
I7
aI9
aa(lp106
I8
aI10
aa(lp107
I9
aI12
aa(lp108
I10
aI11
aa(lp109
I11
aI13
aa(lp110
I12
aI14
aaa(lp111
(lp112
I0
aI0
aa(lp113
I1
aI1
aa(lp114
I2
aI2
aa(lp115
I3
aI3
aa(lp116
I4
aI4
aa(lp117
I5
aI5
aa(lp118
I6
aI6
aa(lp119
I7
aI7
aa(lp120
I8
aI9
aa(lp121
I9
aI9
aa(lp122
I10
aI10
aa(lp123
I11
aI12
aa(lp124
I12
aI11
aa(lp125
I13
aI12
aa(lp126
I14
aI13
aaa(lp127
(lp128
I0
aI0
aa(lp129
I1
aI0
aa(lp130
I2
aI0
aa(lp131
I3
aI2
aa(lp132
I4
aI3
aa(lp133
I5
aI1
aa(lp134
I6
aI4
aa(lp135
I7
aI5
aa(lp136
I8
aI3
aa(lp137
I9
aI6
aa(lp138
I10
aI7
aa(lp139
I11
aI9
aa(lp140
I12
aI11
aa(lp141
I13
aI12
aaa(lp142
(lp143
I0
aI1
aa(lp144
I1
aI2
aa(lp145
I2
aI4
aa(lp146
I3
aI4
aa(lp147
I4
aI5
aa(lp148
I5
aI5
aa(lp149
I6
aI6
aa(lp150
I7
aI7
aa(lp151
I8
aI7
aa(lp152
I9
aI8
aa(lp153
I10
aI9
aa(lp154
I11
aI10
aa(lp155
I12
aI12
aa(lp156
I13
aI13
aaa(lp157
(lp158
I0
aI0
aa(lp159
I1
aI1
aa(lp160
I2
aI1
aa(lp161
I3
aI1
aa(lp162
I4
aI2
aa(lp163
I5
aI3
aa(lp164
I6
aI3
aa(lp165
I7
aI6
aa(lp166
I8
aI10
aa(lp167
I9
aI10
aa(lp168
I10
aI8
aa(lp169
I11
aI10
aa(lp170
I12
aI9
aa(lp171
I13
aI10
aa(lp172
I14
aI2
aaa(lp173
(lp174
I0
aI0
aa(lp175
I1
aI0
aa(lp176
I2
aI1
aa(lp177
I3
aI4
aa(lp178
I4
aI5
aa(lp179
I5
aI5
aa(lp180
I6
aI7
aa(lp181
I7
aI7
aa(lp182
I8
aI8
aa(lp183
I9
aI11
aa(lp184
I10
aI10
aaa(lp185
(lp186
I0
aI0
aa(lp187
I1
aI2
aa(lp188
I2
aI2
aa(lp189
I3
aI3
aa(lp190
I4
aI3
aa(lp191
I5
aI3
aa(lp192
I6
aI4
aa(lp193
I7
aI5
aa(lp194
I8
aI7
aa(lp195
I9
aI8
aa(lp196
I10
aI9
aa(lp197
I11
aI9
aa(lp198
I12
aI2
aaa(lp199
(lp200
I0
aI0
aa(lp201
I1
aI11
aa(lp202
I2
aI2
aa(lp203
I3
aI4
aa(lp204
I4
aI5
aa(lp205
I5
aI6
aa(lp206
I6
aI7
aa(lp207
I7
aI8
aa(lp208
I8
aI9
aa(lp209
I9
aI10
aaa(lp210
(lp211
I0
aI0
aa(lp212
I1
aI0
aa(lp213
I2
aI1
aa(lp214
I3
aI1
aa(lp215
I4
aI2
aa(lp216
I5
aI4
aa(lp217
I6
aI6
aa(lp218
I7
aI6
aa(lp219
I8
aI7
aa(lp220
I9
aI9
aa(lp221
I10
aI9
aa(lp222
I11
aI8
aaa(lp223
(lp224
I0
aI0
aa(lp225
I1
aI1
aa(lp226
I2
aI2
aa(lp227
I3
aI1
aa(lp228
I4
aI2
aa(lp229
I5
aI1
aa(lp230
I6
aI2
aa(lp231
I7
aI3
aa(lp232
I8
aI4
aa(lp233
I9
aI5
aaa(lp234
(lp235
I0
aI0
aa(lp236
I1
aI1
aa(lp237
I2
aI2
aa(lp238
I3
aI4
aa(lp239
I4
aI5
aa(lp240
I5
aI6
aaa(lp241
(lp242
I0
aI0
aa(lp243
I1
aI2
aa(lp244
I2
aI3
aa(lp245
I3
aI4
aa(lp246
I4
aI5
aa(lp247
I5
aI6
aa(lp248
I6
aI7
aaa(lp249
(lp250
I0
aI0
aa(lp251
I1
aI1
aa(lp252
I2
aI2
aa(lp253
I3
aI3
aa(lp254
I4
aI4
aa(lp255
I5
aI6
aa(lp256
I6
aI7
aa(lp257
I7
aI8
aaa(lp258
(lp259
I0
aI0
aa(lp260
I1
aI1
aa(lp261
I2
aI2
aa(lp262
I3
aI3
aa(lp263
I4
aI3
aa(lp264
I5
aI3
aa(lp265
I6
aI4
aa(lp266
I7
aI5
aa(lp267
I8
aI5
aaa(lp268
(lp269
I0
aI0
aa(lp270
I1
aI1
aa(lp271
I2
aI3
aa(lp272
I3
aI4
aa(lp273
I4
aI6
aa(lp274
I5
aI8
aaa(lp275
(lp276
I0
aI0
aa(lp277
I1
aI0
aa(lp278
I2
aI1
aa(lp279
I3
aI2
aa(lp280
I4
aI3
aa(lp281
I5
aI4
aa(lp282
I6
aI5
aa(lp283
I7
aI6
aa(lp284
I8
aI7
aaa(lp285
(lp286
I0
aI1
aa(lp287
I1
aI2
aa(lp288
I2
aI0
aa(lp289
I3
aI1
aa(lp290
I4
aI1
aa(lp291
I5
aI3
aa(lp292
I6
aI4
aa(lp293
I7
aI5
aaa(lp294
(lp295
I0
aI2
aa(lp296
I1
aI3
aa(lp297
I2
aI2
aa(lp298
I3
aI5
aa(lp299
I4
aI6
aa(lp300
I5
aI6
aaa(lp301
(lp302
I0
aI0
aa(lp303
I1
aI0
aa(lp304
I2
aI1
aa(lp305
I3
aI2
aa(lp306
I4
aI2
aa(lp307
I5
aI3
aa(lp308
I6
aI4
aaa(lp309
(lp310
I0
aI0
aa(lp311
I1
aI0
aa(lp312
I2
aI1
aa(lp313
I3
aI4
aa(lp314
I4
aI4
aaa(lp315
(lp316
I0
aI0
aa(lp317
I1
aI1
aa(lp318
I2
aI1
aa(lp319
I3
aI1
aa(lp320
I4
aI3
aaa(lp321
(lp322
I0
aI0
aa(lp323
I1
aI1
aa(lp324
I2
aI5
aa(lp325
I3
aI6
aaa(lp326
(lp327
I0
aI0
aa(lp328
I1
aI0
aa(lp329
I2
aI1
aa(lp330
I3
aI0
aa(lp331
I4
aI0
aa(lp332
I5
aI2
aa(lp333
I6
aI4
aaa(lp334
(lp335
I0
aI0
aa(lp336
I1
aI2
aa(lp337
I2
aI3
aa(lp338
I3
aI3
aa(lp339
I4
aI4
aaa(lp340
(lp341
I0
aI1
aa(lp342
I1
aI0
aa(lp343
I2
aI0
aa(lp344
I3
aI3
aa(lp345
I4
aI4
aaa(lp346
(lp347
I0
aI3
aa(lp348
I1
aI4
aa(lp349
I2
aI5
aa(lp350
I3
aI5
aa(lp351
I4
aI6
aaa(lp352
(lp353
I0
aI0
aa(lp354
I1
aI0
aa(lp355
I2
aI1
aa(lp356
I3
aI5
aa(lp357
I4
aI1
aa(lp358
I5
aI2
aa(lp359
I6
aI3
aaa(lp360
(lp361
I0
aI1
aa(lp362
I1
aI4
aa(lp363
I2
aI5
aa(lp364
I3
aI5
aa(lp365
I4
aI3
aa(lp366
I5
aI2
aaa(lp367
(lp368
I0
aI0
aa(lp369
I1
aI1
aa(lp370
I2
aI1
aa(lp371
I3
aI1
aa(lp372
I4
aI2
aa(lp373
I5
aI3
aaa(lp374
(lp375
I0
aI2
aa(lp376
I1
aI0
aa(lp377
I2
aI1
aa(lp378
I3
aI3
aaa(lp379
(lp380
I0
aI0
aa(lp381
I1
aI1
aa(lp382
I2
aI0
aa(lp383
I3
aI2
aa(lp384
I4
aI2
aaa(lp385
(lp386
I0
aI2
aa(lp387
I1
aI3
aa(lp388
I2
aI4
aa(lp389
I3
aI5
aaa(lp390
(lp391
I0
aI1
aa(lp392
I1
aI1
aa(lp393
I2
aI1
aa(lp394
I3
aI2
aa(lp395
I5
aI0
aaa(lp396
(lp397
I0
aI1
aa(lp398
I1
aI3
aa(lp399
I2
aI4
aaa(lp400
(lp401
I0
aI0
aa(lp402
I1
aI0
aa(lp403
I2
aI1
aa(lp404
I3
aI1
aa(lp405
I4
aI2
aa(lp406
I5
aI3
aaa(lp407
(lp408
I0
aI0
aa(lp409
I1
aI2
aa(lp410
I2
aI3
aa(lp411
I3
aI4
aaa(lp412
(lp413
I0
aI0
aa(lp414
I1
aI1
aa(lp415
I2
aI4
aa(lp416
I3
aI2
aa(lp417
I4
aI3
aaa(lp418
(lp419
I0
aI0
aa(lp420
I1
aI0
aa(lp421
I2
aI1
aa(lp422
I3
aI2
aa(lp423
I4
aI0
aaa(lp424
(lp425
I0
aI0
aa(lp426
I1
aI2
aa(lp427
I2
aI4
aaa(lp428
(lp429
I0
aI0
aa(lp430
I1
aI1
aa(lp431
I2
aI2
aa(lp432
I3
aI2
aa(lp433
I4
aI3
aa(lp434
I5
aI0
aaa(lp435
(lp436
I0
aI0
aa(lp437
I1
aI0
aa(lp438
I2
aI2
aa(lp439
I3
aI3
aaa(lp440
(lp441
I0
aI0
aa(lp442
I1
aI0
aa(lp443
I2
aI0
aaa(lp444
(lp445
I0
aI1
aa(lp446
I1
aI2
aaa(lp447
(lp448
I0
aI0
aa(lp449
I1
aI3
aa(lp450
I2
aI4
aa(lp451
I3
aI5
aaa(lp452
(lp453
I0
aI0
aa(lp454
I1
aI1
aa(lp455
I2
aI1
aa(lp456
I3
aI2
aa(lp457
I4
aI3
aa(lp458
I5
aI4
aa(lp459
I6
aI1
aaa(lp460
(lp461
I0
aI1
aa(lp462
I1
aI1
aa(lp463
I2
aI2
aa(lp464
I3
aI3
aa(lp465
I4
aI4
aaa(lp466
(lp467
I0
aI3
aa(lp468
I1
aI1
aa(lp469
I2
aI2
aa(lp470
I3
aI3
aa(lp471
I4
aI4
aaa(lp472
(lp473
I0
aI0
aa(lp474
I1
aI0
aa(lp475
I2
aI1
aa(lp476
I3
aI2
aa(lp477
I4
aI3
aaa(lp478
(lp479
I0
aI3
aa(lp480
I1
aI0
aa(lp481
I2
aI1
aa(lp482
I3
aI2
aaa(lp483
(lp484
I0
aI1
aa(lp485
I1
aI2
aa(lp486
I2
aI3
aa(lp487
I3
aI0
aaa(lp488
(lp489
I0
aI0
aa(lp490
I1
aI1
aa(lp491
I2
aI1
aa(lp492
I3
aI2
aaa.